target datalayout = "e-m:e-p270:32:32-p271:32:32-p272:64:64-i64:64-i128:128-f80:128-n8:16:32:64-S128"
target triple = "x86_64-pc-linux-gnu"

%class.CompilerDirectives = type { ptr, ptr, i32, ptr, ptr }
%class.DirectiveSet = type { ptr, ptr, %class.TriBoolArray, [4 x i8], %class.CHeapBitMap, %class.CHeapBitMap, [27 x i8], i8, i8, i8, i8, i8, i64, i64, i8, i8, i8, i8, i8, i8, i8, i8, i8, i64, ptr, ptr, i8, i8, i8, i8, i8, i8, i8, i64 }
%class.TriBoolArray = type { [27 x i32] }
%class.CHeapBitMap = type <{ %class.GrowableBitMap, i8, [7 x i8] }>
%class.GrowableBitMap = type { %class.BitMap }
%class.BitMap = type { ptr, i64 }

@.str.9 = private unnamed_addr constant [3 x i8] c"c1\00", align 1
@.str.10 = private unnamed_addr constant [3 x i8] c"c2\00", align 1
@g_assert_poison = external global ptr, align 8
@.str.11 = private unnamed_addr constant [50 x i8] c"src/hotspot/share/compiler/compilerDirectives.cpp\00", align 1
@LogCompilation = external global i8, align 1
@.str.12 = private unnamed_addr constant [87 x i8] c"Warning: %s: +LogCompilation must be set to enable compilation logging from directives\00", align 1
@.str.13 = private unnamed_addr constant [98 x i8] c"%s: printing of assembly code is enabled; turning on DebugNonSafepoints to gain additional output\00", align 1
@DebugNonSafepoints = external global i8, align 1

; Function Attrs: mustprogress nounwind uwtable
define hidden noundef zeroext i1 @_ZNK12DirectiveSet5is_c2EP18CompilerDirectives(ptr noundef nonnull align 8 dereferenceable(280) %0, ptr noundef %1) #1 align 2 {
  %3 = alloca ptr, align 8
  %4 = alloca ptr, align 8
  store ptr %0, ptr %3, align 8
  store ptr %1, ptr %4, align 8
  %5 = load ptr, ptr %3, align 8
  %6 = load ptr, ptr %4, align 8
  %7 = getelementptr inbounds %class.CompilerDirectives, ptr %6, i32 0, i32 4
  %8 = load ptr, ptr %7, align 8
  %9 = icmp eq ptr %5, %8
  ret i1 %9
}

; Function Attrs: mustprogress nounwind uwtable
define hidden noundef zeroext i1 @_ZNK12DirectiveSet5is_c1EP18CompilerDirectives(ptr noundef nonnull align 8 dereferenceable(280) %0, ptr noundef %1) #1 align 2 {
  %3 = alloca ptr, align 8
  %4 = alloca ptr, align 8
  store ptr %0, ptr %3, align 8
  store ptr %1, ptr %4, align 8
  %5 = load ptr, ptr %3, align 8
  %6 = load ptr, ptr %4, align 8
  %7 = getelementptr inbounds %class.CompilerDirectives, ptr %6, i32 0, i32 3
  %8 = load ptr, ptr %7, align 8
  %9 = icmp eq ptr %5, %8
  ret i1 %9
}

; Function Attrs: mustprogress nounwind uwtable
define hidden noundef ptr @_ZN12DirectiveSet9directiveEv(ptr noundef nonnull align 8 dereferenceable(280) %0) #1 align 2 {
  %2 = alloca ptr, align 8
  store ptr %0, ptr %2, align 8
  %3 = load ptr, ptr %2, align 8
  %4 = getelementptr inbounds %class.DirectiveSet, ptr %3, i32 0, i32 1
  %5 = load ptr, ptr %4, align 8
  ret ptr %5
}

; Function Attrs: mustprogress nounwind uwtable
define hidden void @_ZN12DirectiveSet8finalizeEP12outputStream(ptr noundef nonnull align 8 dereferenceable(280) %0, ptr noundef %1) #1 align 2 {
  %3 = alloca ptr, align 8
  %4 = alloca ptr, align 8
  %5 = alloca ptr, align 8
  %6 = alloca i32, align 4
  store ptr %0, ptr %3, align 8
  store ptr %1, ptr %4, align 8
  %7 = load ptr, ptr %3, align 8
  %8 = call noundef ptr @_ZN12DirectiveSet9directiveEv(ptr noundef nonnull align 8 dereferenceable(280) %7)
  %9 = call noundef zeroext i1 @_ZNK12DirectiveSet5is_c1EP18CompilerDirectives(ptr noundef nonnull align 8 dereferenceable(280) %7, ptr noundef %8)
  br i1 %9, label %10, label %11

10:                                               ; preds = %2
  store ptr @.str.9, ptr %5, align 8
  br label %20

11:                                               ; preds = %2
  %12 = call noundef ptr @_ZN12DirectiveSet9directiveEv(ptr noundef nonnull align 8 dereferenceable(280) %7)
  %13 = call noundef zeroext i1 @_ZNK12DirectiveSet5is_c2EP18CompilerDirectives(ptr noundef nonnull align 8 dereferenceable(280) %7, ptr noundef %12)
  br i1 %13, label %14, label %15

14:                                               ; preds = %11
  store ptr @.str.10, ptr %5, align 8
  br label %19

15:                                               ; preds = %11
  br label %16

16:                                               ; preds = %15
  %17 = load ptr, ptr @g_assert_poison, align 8
  store i8 88, ptr %17, align 1
  call void @_Z28report_should_not_reach_herePKci(ptr noundef @.str.11, i32 noundef 113) #10
  unreachable

18:                                               ; No predecessors!
  br label %19

19:                                               ; preds = %18, %14
  br label %20

20:                                               ; preds = %19, %10
  %21 = getelementptr inbounds %class.DirectiveSet, ptr %7, i32 0, i32 11
  %22 = load i8, ptr %21, align 1
  %23 = trunc i8 %22 to i1
  br i1 %23, label %24, label %30

24:                                               ; preds = %20
  %25 = load i8, ptr @LogCompilation, align 1
  %26 = trunc i8 %25 to i1
  br i1 %26, label %30, label %27

27:                                               ; preds = %24
  %28 = load ptr, ptr %4, align 8
  %29 = load ptr, ptr %5, align 8
  call void (ptr, ptr, ...) @_ZN12outputStream8print_crEPKcz(ptr noundef nonnull align 8 dereferenceable(56) %28, ptr noundef @.str.12, ptr noundef %29)
  br label %30

30:                                               ; preds = %27, %24, %20
  %31 = getelementptr inbounds %class.DirectiveSet, ptr %7, i32 0, i32 14
  %32 = load i8, ptr %31, align 8
  %33 = trunc i8 %32 to i1
  br i1 %33, label %34, label %38

34:                                               ; preds = %30
  %35 = call noundef zeroext i1 @_ZN7JVMFlag10is_defaultE12JVMFlagsEnum(i32 noundef 677)
  br i1 %35, label %36, label %38

36:                                               ; preds = %34
  %37 = load ptr, ptr %5, align 8
  call void (ptr, ...) @_Z7warningPKcz(ptr noundef @.str.13, ptr noundef %37)
  store i8 1, ptr @DebugNonSafepoints, align 1
  br label %38

38:                                               ; preds = %36, %34, %30
  %39 = getelementptr inbounds %class.DirectiveSet, ptr %7, i32 0, i32 6
  %40 = getelementptr inbounds [27 x i8], ptr %39, i64 0, i64 0
  %41 = load i8, ptr %40, align 8
  %42 = trunc i8 %41 to i1
  br i1 %42, label %67, label %43

43:                                               ; preds = %38
  %44 = getelementptr inbounds %class.DirectiveSet, ptr %7, i32 0, i32 0
  %45 = load ptr, ptr %44, align 8
  %46 = icmp ne ptr %45, null
  br i1 %46, label %47, label %49

47:                                               ; preds = %43
  %48 = getelementptr inbounds %class.DirectiveSet, ptr %7, i32 0, i32 7
  store i8 1, ptr %48, align 1
  br label %67

49:                                               ; preds = %43
  store i32 0, ptr %6, align 4
  br label %50

50:                                               ; preds = %63, %49
  %51 = load i32, ptr %6, align 4
  %52 = icmp slt i32 %51, 27
  br i1 %52, label %53, label %66

53:                                               ; preds = %50
  %54 = getelementptr inbounds %class.DirectiveSet, ptr %7, i32 0, i32 6
  %55 = load i32, ptr %6, align 4
  %56 = sext i32 %55 to i64
  %57 = getelementptr inbounds [27 x i8], ptr %54, i64 0, i64 %56
  %58 = load i8, ptr %57, align 1
  %59 = trunc i8 %58 to i1
  br i1 %59, label %60, label %62

60:                                               ; preds = %53
  %61 = getelementptr inbounds %class.DirectiveSet, ptr %7, i32 0, i32 7
  store i8 1, ptr %61, align 1
  br label %67

62:                                               ; preds = %53
  br label %63

63:                                               ; preds = %62
  %64 = load i32, ptr %6, align 4
  %65 = add nsw i32 %64, 1
  store i32 %65, ptr %6, align 4
  br label %50, !llvm.loop !11

66:                                               ; preds = %50
  br label %67

67:                                               ; preds = %66, %60, %47, %38
  ret void
}