; Function Attrs: mustprogress nounwind uwtable
define hidden void @_ZN12DirectiveSet8finalizeEP12outputStream(ptr noundef nonnull align 8 dereferenceable(280) %0, ptr noundef %1) local_unnamed_addr #0 align 2 {
  %3 = getelementptr inbounds i8, ptr %0, i64 8
  %4 = load ptr, ptr %3, align 8
  %5 = getelementptr inbounds i8, ptr %4, i64 24
  %6 = load ptr, ptr %5, align 8
  %7 = icmp eq ptr %6, %0
  br i1 %7, label %14, label %8

8:                                                ; preds = %2
  %9 = getelementptr inbounds i8, ptr %4, i64 32
  %10 = load ptr, ptr %9, align 8
  %11 = icmp eq ptr %10, %0
  br i1 %11, label %14, label %12

12:                                               ; preds = %8
  %13 = load ptr, ptr @g_assert_poison, align 8
  store i8 88, ptr %13, align 1
  tail call void @_Z28report_should_not_reach_herePKci(ptr noundef nonnull @.str.11, i32 noundef 113) #15
  unreachable

14:                                               ; preds = %8, %2
  %.06 = phi ptr [ @.str.9, %2 ], [ @.str.10, %8 ]
  %15 = getelementptr inbounds i8, ptr %0, i64 207
  %16 = load i8, ptr %15, align 1
  %17 = trunc i8 %16 to i1
  br i1 %17, label %18, label %22

18:                                               ; preds = %14
  %19 = load i8, ptr @LogCompilation, align 1
  %20 = trunc i8 %19 to i1
  br i1 %20, label %22, label %21

21:                                               ; preds = %18
  tail call void (ptr, ptr, ...) @_ZN12outputStream8print_crEPKcz(ptr noundef nonnull align 8 dereferenceable(56) %1, ptr noundef nonnull @.str.12, ptr noundef nonnull %.06) #14
  br label %22

22:                                               ; preds = %21, %18, %14
  %23 = getelementptr inbounds i8, ptr %0, i64 224
  %24 = load i8, ptr %23, align 8
  %25 = trunc i8 %24 to i1
  br i1 %25, label %26, label %29

26:                                               ; preds = %22
  %27 = tail call noundef zeroext i1 @_ZN7JVMFlag10is_defaultE12JVMFlagsEnum(i32 noundef 677) #14
  br i1 %27, label %28, label %29

28:                                               ; preds = %26
  tail call void (ptr, ...) @_Z7warningPKcz(ptr noundef nonnull @.str.13, ptr noundef nonnull %.06) #14
  store i8 1, ptr @DebugNonSafepoints, align 1
  br label %29

29:                                               ; preds = %28, %26, %22
  %30 = getelementptr inbounds i8, ptr %0, i64 176
  %31 = load i8, ptr %30, align 8
  %32 = trunc i8 %31 to i1
  br i1 %32, label %.loopexit, label %33

33:                                               ; preds = %29
  %34 = load ptr, ptr %0, align 8
  %.not = icmp eq ptr %34, null
  br i1 %.not, label %.preheader, label %.loopexit.sink.split

35:                                               ; preds = %.preheader
  %indvars.iv.next = add nuw nsw i64 %indvars.iv, 1
  %exitcond.not = icmp eq i64 %indvars.iv.next, 27
  br i1 %exitcond.not, label %.loopexit, label %.preheader, !llvm.loop !12

.preheader:                                       ; preds = %33, %35
  %indvars.iv = phi i64 [ %indvars.iv.next, %35 ], [ 0, %33 ]
  %36 = getelementptr inbounds [27 x i8], ptr %30, i64 0, i64 %indvars.iv
  %37 = load i8, ptr %36, align 1
  %38 = trunc i8 %37 to i1
  br i1 %38, label %.loopexit.sink.split, label %35

.loopexit.sink.split:                             ; preds = %.preheader, %33
  %39 = getelementptr inbounds i8, ptr %0, i64 203
  store i8 1, ptr %39, align 1
  br label %.loopexit

.loopexit:                                        ; preds = %35, %.loopexit.sink.split, %29
  ret void
}